; Function Attrs: nounwind uwtable
define internal fastcc void @llvm_emit_bitstruct_member(ptr noundef %0, ptr noundef %1, ptr nocapture noundef readonly %2, ptr noundef %3) unnamed_addr #0 {
  %5 = alloca i32, align 4
  %6 = getelementptr inbounds i8, ptr %1, i64 8
  %7 = getelementptr inbounds i8, ptr %1, i64 16
  %8 = getelementptr inbounds i8, ptr %1, i64 4
  br label %9

9:                                                ; preds = %47, %4
  %.0 = phi ptr [ %2, %4 ], [ %15, %47 ]
  %10 = tail call fastcc i32 @find_member_index(ptr noundef %.0, ptr noundef %3)
  %11 = getelementptr inbounds i8, ptr %.0, i64 104
  %12 = load ptr, ptr %11, align 8
  %13 = sext i32 %10 to i64
  %14 = getelementptr inbounds ptr, ptr %12, i64 %13
  %15 = load ptr, ptr %14, align 8
  %16 = getelementptr inbounds i8, ptr %.0, i64 72
  %17 = load ptr, ptr %16, align 8
  %18 = getelementptr inbounds i8, ptr %17, i64 8
  %19 = load ptr, ptr %18, align 8
  %20 = load i32, ptr %19, align 8
  switch i32 %20, label %46 [
    i32 27, label %21
    i32 26, label %25
    i32 29, label %47
  ]

21:                                               ; preds = %9
  tail call void @llvm_value_addr(ptr noundef %0, ptr noundef %1) #10
  %22 = getelementptr inbounds i8, ptr %15, i64 72
  %23 = load ptr, ptr %22, align 8
  %24 = tail call fastcc ptr @type_lowering(ptr noundef %23)
  store ptr %24, ptr %6, align 8
  br label %47

25:                                               ; preds = %9
  call void @llvm.lifetime.start.p0(i64 4, ptr nonnull %5)
  tail call void @llvm_value_fold_optional(ptr noundef %0, ptr noundef %1) #10
  %26 = load ptr, ptr %6, align 8
  %27 = getelementptr inbounds i8, ptr %26, i64 56
  %28 = load ptr, ptr %27, align 8
  %29 = getelementptr inbounds i8, ptr %28, i64 104
  %30 = load ptr, ptr %29, align 8
  %31 = add i32 %10, 1
  %wide.trip.count.i = zext i32 %31 to i64
  br label %32

32:                                               ; preds = %32, %25
  %indvars.iv.i = phi i64 [ 0, %25 ], [ %indvars.iv.next.i, %32 ]
  %.023.i = phi i32 [ -1, %25 ], [ %38, %32 ]
  %33 = getelementptr inbounds ptr, ptr %30, i64 %indvars.iv.i
  %34 = load ptr, ptr %33, align 8
  %35 = getelementptr inbounds i8, ptr %34, i64 48
  %36 = load i64, ptr %35, align 8
  %.not21.i = icmp ugt i64 %36, 4294967295
  %37 = zext i1 %.not21.i to i32
  %spec.select.i = add i32 %.023.i, 1
  %38 = add i32 %spec.select.i, %37
  %indvars.iv.next.i = add nuw nsw i64 %indvars.iv.i, 1
  %exitcond.not.i = icmp eq i64 %indvars.iv.next.i, %wide.trip.count.i
  br i1 %exitcond.not.i, label %llvm_value_struct_gep.exit, label %32, !llvm.loop !46

llvm_value_struct_gep.exit:                       ; preds = %32
  %39 = load ptr, ptr %7, align 8
  %40 = tail call ptr @llvm_get_type(ptr noundef %0, ptr noundef %26) #10
  %41 = load i32, ptr %8, align 4
  %42 = call ptr @llvm_emit_struct_gep_raw(ptr noundef %0, ptr noundef %39, ptr noundef %40, i32 noundef %38, i32 noundef %41, ptr noundef nonnull %5)
  %43 = getelementptr inbounds i8, ptr %34, i64 72
  %44 = load ptr, ptr %43, align 8
  tail call void @llvm_value_set_address_abi_aligned(ptr noundef %1, ptr noundef %42, ptr noundef %44) #10
  %45 = load i32, ptr %5, align 4
  store i32 %45, ptr %8, align 4
  call void @llvm.lifetime.end.p0(i64 4, ptr nonnull %5)
  br label %47

46:                                               ; preds = %9
  tail call void (ptr, ...) @error_exit(ptr noundef nonnull @.str.9, ptr noundef nonnull @.str.10, ptr noundef nonnull @__func__.llvm_emit_bitstruct_member, ptr noundef nonnull @.str.11, i32 noundef 818) #11
  unreachable

47:                                               ; preds = %9, %llvm_value_struct_gep.exit, %21
  %.not = icmp eq ptr %15, %3
  br i1 %.not, label %48, label %9, !llvm.loop !67

48:                                               ; preds = %47
  ret void
}